; Function Attrs: nounwind uwtable
define internal range(i32 -1, 60) i32 @entity5(ptr noundef captures(none) %0, i32 noundef %1, ptr noundef %2, ptr noundef %3, ptr noundef %4) #1 {
  switch i32 %1, label %14 [
    i32 15, label %common.exit
    i32 17, label %6
    i32 18, label %10
  ]

6:                                                ; preds = %5
  %7 = getelementptr inbounds nuw i8, ptr %0, i64 20
  %8 = load i32, ptr %7, align 4, !tbaa !9
  %.not10 = icmp eq i32 %8, 0
  %9 = select i1 %.not10, ptr @externalSubset1, ptr @internalSubset
  br label %common.exit.sink.split

10:                                               ; preds = %5
  %11 = getelementptr inbounds nuw i8, ptr %4, i64 48
  %12 = load ptr, ptr %11, align 8, !tbaa !12
  %13 = tail call i32 %12(ptr noundef %4, ptr noundef %2, ptr noundef %3, ptr noundef nonnull @KW_NDATA) #5
  %.not = icmp eq i32 %13, 0
  br i1 %.not, label %.thread, label %common.exit.sink.split

14:                                               ; preds = %5
  %15 = getelementptr inbounds nuw i8, ptr %0, i64 20
  %16 = load i32, ptr %15, align 4, !tbaa !9
  %17 = icmp eq i32 %16, 0
  %18 = icmp eq i32 %1, 28
  %or.cond.i = and i1 %18, %17
  br i1 %or.cond.i, label %common.exit, label %.thread

.thread:                                          ; preds = %10, %14
  br label %common.exit.sink.split

common.exit.sink.split:                           ; preds = %10, %6, %.thread
  %error.sink = phi ptr [ @error, %.thread ], [ %9, %6 ], [ @entity6, %10 ]
  %.0.ph = phi i32 [ -1, %.thread ], [ 15, %6 ], [ 11, %10 ]
  store ptr %error.sink, ptr %0, align 8, !tbaa !3
  br label %common.exit

common.exit:                                      ; preds = %common.exit.sink.split, %14, %5
  %.0 = phi i32 [ 11, %5 ], [ 59, %14 ], [ %.0.ph, %common.exit.sink.split ]
  ret i32 %.0
}